target datalayout = "e-m:e-p270:32:32-p271:32:32-p272:64:64-i64:64-i128:128-f80:128-n8:16:32:64-S128"
target triple = "x86_64-pc-linux-gnu"

%"class.llvm::Twine" = type <{ %"union.llvm::Twine::Child", %"union.llvm::Twine::Child", i8, i8, [6 x i8] }>
%"union.llvm::Twine::Child" = type { %struct.anon }
%struct.anon = type { ptr, i64 }
%"class.llvm::Constant" = type { %"class.llvm::User" }
%"class.llvm::User" = type { %"class.llvm::Value" }
%"class.llvm::Value" = type { i8, i8, i16, i32, ptr, ptr }
%"class.llvm::Type" = type { ptr, i32, i32, ptr }
%"class.llvm::ArrayRef.231" = type { ptr, i64 }
%"class.llvm::ConstantInt" = type { %"class.llvm::ConstantData", %"class.llvm::APInt" }
%"class.llvm::ConstantData" = type { %"class.llvm::Constant" }
%"class.llvm::APInt" = type <{ %union.anon.26, i32, [4 x i8] }>
%union.anon.26 = type { i64 }
%"class.llvm::VectorType" = type <{ %"class.llvm::Type", ptr, i32, [4 x i8] }>

@.str.908 = private unnamed_addr constant [8 x i8] c"palignr\00", align 1

; Function Attrs: mustprogress nounwind uwtable
define linkonce_odr hidden noundef ptr @_ZN4llvm16cast_convert_valINS_15FixedVectorTypeEPNS_4TypeES3_E4doitEPKS2_(ptr noundef %0) #1 comdat align 2 {
  %2 = alloca ptr, align 8
  store ptr %0, ptr %2, align 8
  %3 = load ptr, ptr %2, align 8
  ret ptr %3
}

; Function Attrs: mustprogress nounwind uwtable
define linkonce_odr hidden noundef zeroext i1 @_ZNK4llvm5APInt12isSingleWordEv(ptr noundef nonnull align 8 dereferenceable(12) %0) #1 comdat align 2 {
  %2 = alloca ptr, align 8
  store ptr %0, ptr %2, align 8
  %3 = load ptr, ptr %2, align 8
  %4 = getelementptr inbounds nuw %"class.llvm::APInt", ptr %3, i32 0, i32 1
  %5 = load i32, ptr %4, align 8
  %6 = icmp ule i32 %5, 64
  ret i1 %6
}

; Function Attrs: mustprogress nounwind uwtable
define linkonce_odr hidden noundef ptr @_ZN4llvm16cast_convert_valINS_11ConstantIntEPNS_5ValueES3_E4doitEPKS2_(ptr noundef %0) #1 comdat align 2 {
  %2 = alloca ptr, align 8
  store ptr %0, ptr %2, align 8
  %3 = load ptr, ptr %2, align 8
  ret ptr %3
}

; Function Attrs: mustprogress nounwind uwtable
define linkonce_odr hidden noundef ptr @_ZN4llvm8CastInfoINS_15FixedVectorTypeEPNS_4TypeEvE6doCastERKS3_(ptr noundef nonnull align 8 dereferenceable(8) %0) #1 comdat align 2 {
  %2 = alloca ptr, align 8
  store ptr %0, ptr %2, align 8
  %3 = load ptr, ptr %2, align 8
  %4 = load ptr, ptr %3, align 8
  %5 = call noundef ptr @_ZN4llvm16cast_convert_valINS_15FixedVectorTypeEPNS_4TypeES3_E4doitEPKS2_(ptr noundef %4)
  ret ptr %5
}

; Function Attrs: mustprogress nounwind uwtable
define linkonce_odr hidden noundef i64 @_ZNK4llvm5APInt12getZExtValueEv(ptr noundef nonnull align 8 dereferenceable(12) %0) #1 comdat align 2 {
  %2 = alloca i64, align 8
  %3 = alloca ptr, align 8
  store ptr %0, ptr %3, align 8
  %4 = load ptr, ptr %3, align 8
  %5 = call noundef zeroext i1 @_ZNK4llvm5APInt12isSingleWordEv(ptr noundef nonnull align 8 dereferenceable(12) %4)
  br i1 %5, label %6, label %9

6:                                                ; preds = %1
  %7 = getelementptr inbounds nuw %"class.llvm::APInt", ptr %4, i32 0, i32 0
  %8 = load i64, ptr %7, align 8
  store i64 %8, ptr %2, align 8
  br label %14

9:                                                ; preds = %1
  %10 = getelementptr inbounds nuw %"class.llvm::APInt", ptr %4, i32 0, i32 0
  %11 = load ptr, ptr %10, align 8
  %12 = getelementptr inbounds i64, ptr %11, i64 0
  %13 = load i64, ptr %12, align 8
  store i64 %13, ptr %2, align 8
  br label %14

14:                                               ; preds = %9, %6
  %15 = load i64, ptr %2, align 8
  ret i64 %15
}

; Function Attrs: mustprogress nounwind uwtable
define linkonce_odr hidden noundef ptr @_ZN4llvm8CastInfoINS_11ConstantIntEPNS_5ValueEvE6doCastERKS3_(ptr noundef nonnull align 8 dereferenceable(8) %0) #1 comdat align 2 {
  %2 = alloca ptr, align 8
  store ptr %0, ptr %2, align 8
  %3 = load ptr, ptr %2, align 8
  %4 = load ptr, ptr %3, align 8
  %5 = call noundef ptr @_ZN4llvm16cast_convert_valINS_11ConstantIntEPNS_5ValueES3_E4doitEPKS2_(ptr noundef %4)
  ret ptr %5
}

; Function Attrs: mustprogress nounwind uwtable
define linkonce_odr hidden void @_ZN4llvm5TwineC2EPKc(ptr noundef nonnull align 8 dereferenceable(34) %0, ptr noundef %1) unnamed_addr #1 comdat align 2 {
  %3 = alloca ptr, align 8
  %4 = alloca ptr, align 8
  store ptr %0, ptr %3, align 8
  store ptr %1, ptr %4, align 8
  %5 = load ptr, ptr %3, align 8
  %6 = getelementptr inbounds nuw %"class.llvm::Twine", ptr %5, i32 0, i32 2
  store i8 1, ptr %6, align 8
  %7 = getelementptr inbounds nuw %"class.llvm::Twine", ptr %5, i32 0, i32 3
  store i8 1, ptr %7, align 1
  %8 = load ptr, ptr %4, align 8
  %9 = getelementptr inbounds i8, ptr %8, i64 0
  %10 = load i8, ptr %9, align 1
  %11 = sext i8 %10 to i32
  %12 = icmp ne i32 %11, 0
  br i1 %12, label %13, label %17

13:                                               ; preds = %2
  %14 = load ptr, ptr %4, align 8
  %15 = getelementptr inbounds nuw %"class.llvm::Twine", ptr %5, i32 0, i32 0
  store ptr %14, ptr %15, align 8
  %16 = getelementptr inbounds nuw %"class.llvm::Twine", ptr %5, i32 0, i32 2
  store i8 3, ptr %16, align 8
  br label %19

17:                                               ; preds = %2
  %18 = getelementptr inbounds nuw %"class.llvm::Twine", ptr %5, i32 0, i32 2
  store i8 1, ptr %18, align 8
  br label %19

19:                                               ; preds = %17, %13
  ret void
}

; Function Attrs: mustprogress nounwind uwtable
define linkonce_odr hidden void @_ZN4llvm8ArrayRefIiEC2EPKim(ptr noundef nonnull align 8 dereferenceable(16) %0, ptr noundef %1, i64 noundef %2) unnamed_addr #1 comdat align 2 {
  %4 = alloca ptr, align 8
  %5 = alloca ptr, align 8
  %6 = alloca i64, align 8
  store ptr %0, ptr %4, align 8
  store ptr %1, ptr %5, align 8
  store i64 %2, ptr %6, align 8
  %7 = load ptr, ptr %4, align 8
  %8 = getelementptr inbounds nuw %"class.llvm::ArrayRef.231", ptr %7, i32 0, i32 0
  %9 = load ptr, ptr %5, align 8
  store ptr %9, ptr %8, align 8
  %10 = getelementptr inbounds nuw %"class.llvm::ArrayRef.231", ptr %7, i32 0, i32 1
  %11 = load i64, ptr %6, align 8
  store i64 %11, ptr %10, align 8
  ret void
}

; Function Attrs: mustprogress nounwind uwtable
define linkonce_odr hidden noundef i32 @_ZNK4llvm15FixedVectorType14getNumElementsEv(ptr noundef nonnull align 8 dereferenceable(36) %0) #1 comdat align 2 {
  %2 = alloca ptr, align 8
  store ptr %0, ptr %2, align 8
  %3 = load ptr, ptr %2, align 8
  %4 = getelementptr inbounds nuw %"class.llvm::VectorType", ptr %3, i32 0, i32 2
  %5 = load i32, ptr %4, align 8
  ret i32 %5
}

; Function Attrs: mustprogress nounwind uwtable
define linkonce_odr hidden noundef ptr @_ZN4llvm4castINS_15FixedVectorTypeENS_4TypeEEEDcPT0_(ptr noundef %0) #1 comdat {
  %2 = alloca ptr, align 8
  store ptr %0, ptr %2, align 8
  %3 = call noundef ptr @_ZN4llvm8CastInfoINS_15FixedVectorTypeEPNS_4TypeEvE6doCastERKS3_(ptr noundef nonnull align 8 dereferenceable(8) %2)
  ret ptr %3
}

; Function Attrs: mustprogress nounwind uwtable
define linkonce_odr hidden noundef ptr @_ZNK4llvm5Value7getTypeEv(ptr noundef nonnull align 8 dereferenceable(24) %0) #1 comdat align 2 {
  %2 = alloca ptr, align 8
  store ptr %0, ptr %2, align 8
  %3 = load ptr, ptr %2, align 8
  %4 = getelementptr inbounds nuw %"class.llvm::Value", ptr %3, i32 0, i32 4
  %5 = load ptr, ptr %4, align 8
  ret ptr %5
}

; Function Attrs: mustprogress nounwind uwtable
define linkonce_odr hidden noundef i64 @_ZNK4llvm11ConstantInt12getZExtValueEv(ptr noundef nonnull align 8 dereferenceable(40) %0) #1 comdat align 2 {
  %2 = alloca ptr, align 8
  store ptr %0, ptr %2, align 8
  %3 = load ptr, ptr %2, align 8
  %4 = getelementptr inbounds nuw %"class.llvm::ConstantInt", ptr %3, i32 0, i32 1
  %5 = call noundef i64 @_ZNK4llvm5APInt12getZExtValueEv(ptr noundef nonnull align 8 dereferenceable(12) %4)
  ret i64 %5
}

; Function Attrs: mustprogress nounwind uwtable
define linkonce_odr hidden noundef ptr @_ZN4llvm4castINS_11ConstantIntENS_5ValueEEEDcPT0_(ptr noundef %0) #1 comdat {
  %2 = alloca ptr, align 8
  store ptr %0, ptr %2, align 8
  %3 = call noundef ptr @_ZN4llvm8CastInfoINS_11ConstantIntEPNS_5ValueEvE6doCastERKS3_(ptr noundef nonnull align 8 dereferenceable(8) %2)
  ret ptr %3
}

; Function Attrs: mustprogress nounwind uwtable
define internal noundef ptr @_ZL25upgradeX86ALIGNIntrinsicsRN4llvm9IRBuilderINS_14ConstantFolderENS_24IRBuilderDefaultInserterEEEPNS_5ValueES6_S6_S6_S6_b(ptr noundef nonnull align 8 dereferenceable(144) %0, ptr noundef %1, ptr noundef %2, ptr noundef %3, ptr noundef %4, ptr noundef %5, i1 noundef zeroext %6) #1 {
  %8 = alloca ptr, align 8
  %9 = alloca ptr, align 8
  %10 = alloca ptr, align 8
  %11 = alloca ptr, align 8
  %12 = alloca ptr, align 8
  %13 = alloca ptr, align 8
  %14 = alloca ptr, align 8
  %15 = alloca i8, align 1
  %16 = alloca i32, align 4
  %17 = alloca i32, align 4
  %18 = alloca [64 x i32], align 16
  %19 = alloca i32, align 4
  %20 = alloca i32, align 4
  %21 = alloca i32, align 4
  %22 = alloca ptr, align 8
  %23 = alloca %"class.llvm::ArrayRef.231", align 8
  %24 = alloca %"class.llvm::Twine", align 8
  store ptr %0, ptr %9, align 8
  store ptr %1, ptr %10, align 8
  store ptr %2, ptr %11, align 8
  store ptr %3, ptr %12, align 8
  store ptr %4, ptr %13, align 8
  store ptr %5, ptr %14, align 8
  %25 = zext i1 %6 to i8
  store i8 %25, ptr %15, align 1
  %26 = load ptr, ptr %12, align 8
  %27 = call noundef ptr @_ZN4llvm4castINS_11ConstantIntENS_5ValueEEEDcPT0_(ptr noundef %26)
  %28 = call noundef i64 @_ZNK4llvm11ConstantInt12getZExtValueEv(ptr noundef nonnull align 8 dereferenceable(40) %27)
  %29 = trunc i64 %28 to i32
  store i32 %29, ptr %16, align 4
  %30 = load ptr, ptr %10, align 8
  %31 = call noundef ptr @_ZNK4llvm5Value7getTypeEv(ptr noundef nonnull align 8 dereferenceable(24) %30)
  %32 = call noundef ptr @_ZN4llvm4castINS_15FixedVectorTypeENS_4TypeEEEDcPT0_(ptr noundef %31)
  %33 = call noundef i32 @_ZNK4llvm15FixedVectorType14getNumElementsEv(ptr noundef nonnull align 8 dereferenceable(36) %32)
  store i32 %33, ptr %17, align 4
  %34 = load i8, ptr %15, align 1
  %35 = trunc i8 %34 to i1
  br i1 %35, label %36, label %41

36:                                               ; preds = %7
  %37 = load i32, ptr %17, align 4
  %38 = sub i32 %37, 1
  %39 = load i32, ptr %16, align 4
  %40 = and i32 %39, %38
  store i32 %40, ptr %16, align 4
  br label %41

41:                                               ; preds = %36, %7
  %42 = load i32, ptr %16, align 4
  %43 = icmp uge i32 %42, 32
  br i1 %43, label %44, label %48

44:                                               ; preds = %41
  %45 = load ptr, ptr %10, align 8
  %46 = call noundef ptr @_ZNK4llvm5Value7getTypeEv(ptr noundef nonnull align 8 dereferenceable(24) %45)
  %47 = call noundef ptr @_ZN4llvm8Constant12getNullValueEPNS_4TypeE(ptr noundef %46)
  store ptr %47, ptr %8, align 8
  br label %114

48:                                               ; preds = %41
  %49 = load i32, ptr %16, align 4
  %50 = icmp ugt i32 %49, 16
  br i1 %50, label %51, label %58

51:                                               ; preds = %48
  %52 = load i32, ptr %16, align 4
  %53 = sub i32 %52, 16
  store i32 %53, ptr %16, align 4
  %54 = load ptr, ptr %10, align 8
  store ptr %54, ptr %11, align 8
  %55 = load ptr, ptr %10, align 8
  %56 = call noundef ptr @_ZNK4llvm5Value7getTypeEv(ptr noundef nonnull align 8 dereferenceable(24) %55)
  %57 = call noundef ptr @_ZN4llvm8Constant12getNullValueEPNS_4TypeE(ptr noundef %56)
  store ptr %57, ptr %10, align 8
  br label %58

58:                                               ; preds = %51, %48
  store i32 0, ptr %19, align 4
  br label %59

59:                                               ; preds = %94, %58
  %60 = load i32, ptr %19, align 4
  %61 = load i32, ptr %17, align 4
  %62 = icmp ult i32 %60, %61
  br i1 %62, label %63, label %97

63:                                               ; preds = %59
  store i32 0, ptr %20, align 4
  br label %64

64:                                               ; preds = %90, %63
  %65 = load i32, ptr %20, align 4
  %66 = icmp ne i32 %65, 16
  br i1 %66, label %67, label %93

67:                                               ; preds = %64
  %68 = load i32, ptr %16, align 4
  %69 = load i32, ptr %20, align 4
  %70 = add i32 %68, %69
  store i32 %70, ptr %21, align 4
  %71 = load i8, ptr %15, align 1
  %72 = trunc i8 %71 to i1
  br i1 %72, label %81, label %73

73:                                               ; preds = %67
  %74 = load i32, ptr %21, align 4
  %75 = icmp uge i32 %74, 16
  br i1 %75, label %76, label %81

76:                                               ; preds = %73
  %77 = load i32, ptr %17, align 4
  %78 = sub i32 %77, 16
  %79 = load i32, ptr %21, align 4
  %80 = add i32 %79, %78
  store i32 %80, ptr %21, align 4
  br label %81

81:                                               ; preds = %76, %73, %67
  %82 = load i32, ptr %21, align 4
  %83 = load i32, ptr %19, align 4
  %84 = add i32 %82, %83
  %85 = load i32, ptr %19, align 4
  %86 = load i32, ptr %20, align 4
  %87 = add i32 %85, %86
  %88 = zext i32 %87 to i64
  %89 = getelementptr inbounds [64 x i32], ptr %18, i64 0, i64 %88
  store i32 %84, ptr %89, align 4
  br label %90

90:                                               ; preds = %81
  %91 = load i32, ptr %20, align 4
  %92 = add i32 %91, 1
  store i32 %92, ptr %20, align 4
  br label %64, !llvm.loop !51

93:                                               ; preds = %64
  br label %94

94:                                               ; preds = %93
  %95 = load i32, ptr %19, align 4
  %96 = add i32 %95, 16
  store i32 %96, ptr %19, align 4
  br label %59, !llvm.loop !52

97:                                               ; preds = %59
  %98 = load ptr, ptr %9, align 8
  %99 = load ptr, ptr %11, align 8
  %100 = load ptr, ptr %10, align 8
  %101 = getelementptr inbounds [64 x i32], ptr %18, i64 0, i64 0
  %102 = load i32, ptr %17, align 4
  %103 = zext i32 %102 to i64
  call void @_ZN4llvm8ArrayRefIiEC2EPKim(ptr noundef nonnull align 8 dereferenceable(16) %23, ptr noundef %101, i64 noundef %103)
  call void @_ZN4llvm5TwineC2EPKc(ptr noundef nonnull align 8 dereferenceable(34) %24, ptr noundef @.str.908)
  %104 = getelementptr inbounds nuw { ptr, i64 }, ptr %23, i32 0, i32 0
  %105 = load ptr, ptr %104, align 8
  %106 = getelementptr inbounds nuw { ptr, i64 }, ptr %23, i32 0, i32 1
  %107 = load i64, ptr %106, align 8
  %108 = call noundef ptr @_ZN4llvm13IRBuilderBase19CreateShuffleVectorEPNS_5ValueES2_NS_8ArrayRefIiEERKNS_5TwineE(ptr noundef nonnull align 8 dereferenceable(128) %98, ptr noundef %99, ptr noundef %100, ptr %105, i64 %107, ptr noundef nonnull align 8 dereferenceable(34) %24)
  store ptr %108, ptr %22, align 8
  %109 = load ptr, ptr %9, align 8
  %110 = load ptr, ptr %14, align 8
  %111 = load ptr, ptr %22, align 8
  %112 = load ptr, ptr %13, align 8
  %113 = call noundef ptr @_ZL13emitX86SelectRN4llvm9IRBuilderINS_14ConstantFolderENS_24IRBuilderDefaultInserterEEEPNS_5ValueES6_S6_(ptr noundef nonnull align 8 dereferenceable(144) %109, ptr noundef %110, ptr noundef %111, ptr noundef %112)
  store ptr %113, ptr %8, align 8
  br label %114

114:                                              ; preds = %97, %44
  %115 = load ptr, ptr %8, align 8
  ret ptr %115
}