; Function Attrs: mustprogress nounwind uwtable
define internal fastcc noundef ptr @_ZL25upgradeX86ALIGNIntrinsicsRN4llvm9IRBuilderINS_14ConstantFolderENS_24IRBuilderDefaultInserterEEEPNS_5ValueES6_S6_S6_S6_b(ptr noundef nonnull align 8 dereferenceable(144) %0, ptr noundef %1, ptr noundef %2, ptr nocapture noundef readonly %3, ptr noundef %4, ptr noundef %5, i1 noundef zeroext %6) unnamed_addr #0 {
  %8 = alloca [64 x i32], align 16
  %9 = alloca %"class.llvm::Twine", align 8
  %10 = getelementptr inbounds nuw i8, ptr %3, i64 24
  %11 = getelementptr inbounds i8, ptr %3, i64 32
  %12 = load i32, ptr %11, align 8
  %13 = icmp ult i32 %12, 65
  %14 = load ptr, ptr %10, align 8
  %.0.in.i.i = select i1 %13, ptr %10, ptr %14
  %.0.i.i = load i64, ptr %.0.in.i.i, align 8
  %15 = trunc i64 %.0.i.i to i32
  %16 = getelementptr inbounds nuw i8, ptr %1, i64 8
  %17 = load ptr, ptr %16, align 8
  %18 = getelementptr inbounds nuw i8, ptr %17, i64 32
  %19 = load i32, ptr %18, align 8
  %20 = add i32 %19, -1
  %21 = select i1 %6, i32 %20, i32 -1
  %.039 = and i32 %21, %15
  %22 = icmp ugt i32 %.039, 31
  br i1 %22, label %23, label %25

23:                                               ; preds = %7
  %24 = tail call noundef ptr @_ZN4llvm8Constant12getNullValueEPNS_4TypeE(ptr noundef nonnull %17) #20
  br label %51

25:                                               ; preds = %7
  %26 = icmp ugt i32 %.039, 16
  br i1 %26, label %27, label %30

27:                                               ; preds = %25
  %28 = add nsw i32 %.039, -16
  %29 = tail call noundef ptr @_ZN4llvm8Constant12getNullValueEPNS_4TypeE(ptr noundef nonnull %17) #20
  br label %30

30:                                               ; preds = %27, %25
  %.040 = phi ptr [ %1, %27 ], [ %2, %25 ]
  %.1 = phi i32 [ %28, %27 ], [ %.039, %25 ]
  %.038 = phi ptr [ %29, %27 ], [ %1, %25 ]
  %.not = icmp eq i32 %19, 0
  br i1 %.not, label %._crit_edge, label %.preheader.lr.ph

.preheader.lr.ph:                                 ; preds = %30
  %31 = add i32 %19, -16
  %32 = zext i32 %19 to i64
  br i1 %6, label %.preheader.us, label %.preheader

.preheader.us:                                    ; preds = %.preheader.lr.ph, %.split.us.us
  %indvars.iv56 = phi i64 [ %indvars.iv.next57, %.split.us.us ], [ 0, %.preheader.lr.ph ]
  %33 = trunc nuw i64 %indvars.iv56 to i32
  %invariant.op.us = add i32 %.1, %33
  br label %34

34:                                               ; preds = %34, %.preheader.us
  %indvars.iv53 = phi i64 [ %indvars.iv.next54, %34 ], [ 0, %.preheader.us ]
  %35 = trunc nuw nsw i64 %indvars.iv53 to i32
  %.035.reass.us.us = add i32 %invariant.op.us, %35
  %36 = add nuw nsw i64 %indvars.iv53, %indvars.iv56
  %37 = getelementptr inbounds [64 x i32], ptr %8, i64 0, i64 %36
  store i32 %.035.reass.us.us, ptr %37, align 4
  %indvars.iv.next54 = add nuw nsw i64 %indvars.iv53, 1
  %.not44.us.us = icmp eq i64 %indvars.iv.next54, 16
  br i1 %.not44.us.us, label %.split.us.us, label %34, !llvm.loop !136

.split.us.us:                                     ; preds = %34
  %indvars.iv.next57 = add nuw nsw i64 %indvars.iv56, 16
  %38 = icmp ult i64 %indvars.iv.next57, %32
  br i1 %38, label %.preheader.us, label %._crit_edge, !llvm.loop !137

.preheader:                                       ; preds = %.preheader.lr.ph, %.split
  %indvars.iv50 = phi i64 [ %indvars.iv.next51, %.split ], [ 0, %.preheader.lr.ph ]
  %39 = trunc nuw i64 %indvars.iv50 to i32
  %invariant.op = add i32 %.1, %39
  br label %40

40:                                               ; preds = %.preheader, %40
  %indvars.iv = phi i64 [ 0, %.preheader ], [ %indvars.iv.next, %40 ]
  %indvars49 = trunc i64 %indvars.iv to i32
  %41 = add i32 %.1, %indvars49
  %42 = icmp ult i32 %41, 16
  %spec.select = select i1 %42, i32 0, i32 %31
  %.035.reass = add i32 %invariant.op, %indvars49
  %43 = add i32 %.035.reass, %spec.select
  %44 = add nuw nsw i64 %indvars.iv, %indvars.iv50
  %45 = getelementptr inbounds [64 x i32], ptr %8, i64 0, i64 %44
  store i32 %43, ptr %45, align 4
  %indvars.iv.next = add nuw nsw i64 %indvars.iv, 1
  %.not44 = icmp eq i64 %indvars.iv.next, 16
  br i1 %.not44, label %.split, label %40, !llvm.loop !136

.split:                                           ; preds = %40
  %indvars.iv.next51 = add nuw nsw i64 %indvars.iv50, 16
  %46 = icmp ult i64 %indvars.iv.next51, %32
  br i1 %46, label %.preheader, label %._crit_edge, !llvm.loop !137

._crit_edge:                                      ; preds = %.split, %.split.us.us, %30
  %.pre-phi = phi i64 [ 0, %30 ], [ %32, %.split.us.us ], [ %32, %.split ]
  %47 = getelementptr inbounds nuw i8, ptr %9, i64 32
  %48 = getelementptr inbounds nuw i8, ptr %9, i64 33
  store i8 1, ptr %48, align 1
  store ptr @.str.908, ptr %9, align 8
  store i8 3, ptr %47, align 8
  %49 = call noundef ptr @_ZN4llvm13IRBuilderBase19CreateShuffleVectorEPNS_5ValueES2_NS_8ArrayRefIiEERKNS_5TwineE(ptr noundef nonnull align 8 dereferenceable(128) %0, ptr noundef %.040, ptr noundef %.038, ptr nonnull %8, i64 %.pre-phi, ptr noundef nonnull align 8 dereferenceable(34) %9)
  %50 = call fastcc noundef ptr @_ZL13emitX86SelectRN4llvm9IRBuilderINS_14ConstantFolderENS_24IRBuilderDefaultInserterEEEPNS_5ValueES6_S6_(ptr noundef nonnull align 8 dereferenceable(144) %0, ptr noundef %5, ptr noundef %49, ptr noundef %4)
  br label %51

51:                                               ; preds = %._crit_edge, %23
  %.0 = phi ptr [ %24, %23 ], [ %50, %._crit_edge ]
  ret ptr %.0
}